; ModuleID = 'source-C-CXX/53/1612.cpp'
source_filename = "source-C-CXX/53/1612.cpp"
target datalayout = "e-m:e-p270:32:32-p271:32:32-p272:64:64-i64:64-f80:128-n8:16:32:64-S128"
target triple = "x86_64-pc-linux-gnu"

%"class.std::ios_base::Init" = type { i8 }
%"class.std::basic_istream" = type { i32 (...)**, i64, %"class.std::basic_ios" }
%"class.std::basic_ios" = type { %"class.std::ios_base", %"class.std::basic_ostream"*, i8, i8, %"class.std::basic_streambuf"*, %"class.std::ctype"*, %"class.std::num_put"*, %"class.std::num_get"* }
%"class.std::ios_base" = type { i32 (...)**, i64, i64, i32, i32, i32, %"struct.std::ios_base::_Callback_list"*, %"struct.std::ios_base::_Words", [8 x %"struct.std::ios_base::_Words"], i32, %"struct.std::ios_base::_Words"*, %"class.std::locale" }
%"struct.std::ios_base::_Callback_list" = type { %"struct.std::ios_base::_Callback_list"*, void (i32, %"class.std::ios_base"*, i32)*, i32, i32 }
%"struct.std::ios_base::_Words" = type { i8*, i64 }
%"class.std::locale" = type { %"class.std::locale::_Impl"* }
%"class.std::locale::_Impl" = type { i32, %"class.std::locale::facet"**, i64, %"class.std::locale::facet"**, i8** }
%"class.std::locale::facet" = type <{ i32 (...)**, i32, [4 x i8] }>
%"class.std::basic_ostream" = type { i32 (...)**, %"class.std::basic_ios" }
%"class.std::basic_streambuf" = type { i32 (...)**, i8*, i8*, i8*, i8*, i8*, i8*, %"class.std::locale" }
%"class.std::ctype" = type <{ %"class.std::locale::facet.base", [4 x i8], %struct.__locale_struct*, i8, [7 x i8], i32*, i32*, i16*, i8, [256 x i8], [256 x i8], i8, [6 x i8] }>
%"class.std::locale::facet.base" = type <{ i32 (...)**, i32 }>
%struct.__locale_struct = type { [13 x %struct.__locale_data*], i16*, i32*, i32*, [13 x i8*] }
%struct.__locale_data = type opaque
%"class.std::num_put" = type { %"class.std::locale::facet.base", [4 x i8] }
%"class.std::num_get" = type { %"class.std::locale::facet.base", [4 x i8] }

@_ZStL8__ioinit = internal global %"class.std::ios_base::Init" zeroinitializer, align 1
@__dso_handle = external hidden global i8
@_ZSt3cin = external global %"class.std::basic_istream", align 8
@_ZSt4cout = external global %"class.std::basic_ostream", align 8
@llvm.global_ctors = appending global [1 x { i32, void ()*, i8* }] [{ i32, void ()*, i8* } { i32 65535, void ()* @_GLOBAL__sub_I_1612.cpp, i8* null }]

declare void @_ZNSt8ios_base4InitC1Ev(%"class.std::ios_base::Init"* nonnull align 1 dereferenceable(1)) unnamed_addr #0

; Function Attrs: nounwind
declare void @_ZNSt8ios_base4InitD1Ev(%"class.std::ios_base::Init"* nonnull align 1 dereferenceable(1)) unnamed_addr #1

; Function Attrs: nofree nounwind
declare i32 @__cxa_atexit(void (i8*)*, i8*, i8*) local_unnamed_addr #2

; Function Attrs: mustprogress norecurse sspstrong uwtable
define dso_local i32 @main() local_unnamed_addr #3 {
  %1 = alloca i32, align 4
  %2 = alloca i32, align 4
  %3 = bitcast i32* %1 to i8*
  call void @llvm.lifetime.start.p0i8(i64 4, i8* nonnull %3) #7
  %4 = bitcast i32* %2 to i8*
  call void @llvm.lifetime.start.p0i8(i64 4, i8* nonnull %4) #7
  %5 = call nonnull align 8 dereferenceable(16) %"class.std::basic_istream"* @_ZNSirsERi(%"class.std::basic_istream"* nonnull align 8 dereferenceable(16) @_ZSt3cin, i32* nonnull align 4 dereferenceable(4) %1)
  %6 = call nonnull align 8 dereferenceable(16) %"class.std::basic_istream"* @_ZNSirsERi(%"class.std::basic_istream"* nonnull align 8 dereferenceable(16) %5, i32* nonnull align 4 dereferenceable(4) %2)
  %7 = load i32, i32* %1, align 4, !tbaa !5
  %8 = icmp sgt i32 %7, 0
  br i1 %8, label %9, label %69

9:                                                ; preds = %0
  %10 = icmp ult i32 %7, 8
  br i1 %10, label %66, label %11

11:                                               ; preds = %9
  %12 = and i32 %7, -8
  %13 = insertelement <4 x i32> poison, i32 %7, i32 0
  %14 = shufflevector <4 x i32> %13, <4 x i32> poison, <4 x i32> zeroinitializer
  %15 = insertelement <4 x i32> poison, i32 %7, i32 0
  %16 = shufflevector <4 x i32> %15, <4 x i32> poison, <4 x i32> zeroinitializer
  %17 = add i32 %12, -8
  %18 = lshr exact i32 %17, 3
  %19 = add nuw nsw i32 %18, 1
  %20 = and i32 %19, 7
  %21 = icmp ult i32 %17, 56
  br i1 %21, label %46, label %22

22:                                               ; preds = %11
  %23 = and i32 %19, 1073741816
  br label %24

24:                                               ; preds = %24, %22
  %25 = phi <4 x i32> [ <i32 1, i32 1, i32 1, i32 1>, %22 ], [ %42, %24 ]
  %26 = phi <4 x i32> [ <i32 1, i32 1, i32 1, i32 1>, %22 ], [ %43, %24 ]
  %27 = phi i32 [ %23, %22 ], [ %44, %24 ]
  %28 = mul <4 x i32> %14, %25
  %29 = mul <4 x i32> %16, %26
  %30 = mul <4 x i32> %14, %28
  %31 = mul <4 x i32> %16, %29
  %32 = mul <4 x i32> %14, %30
  %33 = mul <4 x i32> %16, %31
  %34 = mul <4 x i32> %14, %32
  %35 = mul <4 x i32> %16, %33
  %36 = mul <4 x i32> %14, %34
  %37 = mul <4 x i32> %16, %35
  %38 = mul <4 x i32> %14, %36
  %39 = mul <4 x i32> %16, %37
  %40 = mul <4 x i32> %14, %38
  %41 = mul <4 x i32> %16, %39
  %42 = mul <4 x i32> %14, %40
  %43 = mul <4 x i32> %16, %41
  %44 = add i32 %27, -8
  %45 = icmp eq i32 %44, 0
  br i1 %45, label %46, label %24, !llvm.loop !9

46:                                               ; preds = %24, %11
  %47 = phi <4 x i32> [ undef, %11 ], [ %42, %24 ]
  %48 = phi <4 x i32> [ undef, %11 ], [ %43, %24 ]
  %49 = phi <4 x i32> [ <i32 1, i32 1, i32 1, i32 1>, %11 ], [ %42, %24 ]
  %50 = phi <4 x i32> [ <i32 1, i32 1, i32 1, i32 1>, %11 ], [ %43, %24 ]
  %51 = icmp eq i32 %20, 0
  br i1 %51, label %60, label %52

52:                                               ; preds = %46, %52
  %53 = phi <4 x i32> [ %56, %52 ], [ %49, %46 ]
  %54 = phi <4 x i32> [ %57, %52 ], [ %50, %46 ]
  %55 = phi i32 [ %58, %52 ], [ %20, %46 ]
  %56 = mul <4 x i32> %14, %53
  %57 = mul <4 x i32> %16, %54
  %58 = add i32 %55, -1
  %59 = icmp eq i32 %58, 0
  br i1 %59, label %60, label %52, !llvm.loop !12

60:                                               ; preds = %52, %46
  %61 = phi <4 x i32> [ %47, %46 ], [ %56, %52 ]
  %62 = phi <4 x i32> [ %48, %46 ], [ %57, %52 ]
  %63 = mul <4 x i32> %62, %61
  %64 = call i32 @llvm.vector.reduce.mul.v4i32(<4 x i32> %63)
  %65 = icmp eq i32 %7, %12
  br i1 %65, label %69, label %66

66:                                               ; preds = %9, %60
  %67 = phi i32 [ 0, %9 ], [ %12, %60 ]
  %68 = phi i32 [ 1, %9 ], [ %64, %60 ]
  br label %76

69:                                               ; preds = %76, %60, %0
  %70 = phi i32 [ 1, %0 ], [ %64, %60 ], [ %79, %76 ]
  %71 = load i32, i32* %2, align 4, !tbaa !5
  %72 = add nsw i32 %7, -1
  %73 = mul nsw i32 %71, %72
  %74 = sub nsw i32 %70, %73
  %75 = call nonnull align 8 dereferenceable(8) %"class.std::basic_ostream"* @_ZNSolsEi(%"class.std::basic_ostream"* nonnull align 8 dereferenceable(8) @_ZSt4cout, i32 %74)
  call void @llvm.lifetime.end.p0i8(i64 4, i8* nonnull %4) #7
  call void @llvm.lifetime.end.p0i8(i64 4, i8* nonnull %3) #7
  ret i32 0

76:                                               ; preds = %66, %76
  %77 = phi i32 [ %80, %76 ], [ %67, %66 ]
  %78 = phi i32 [ %79, %76 ], [ %68, %66 ]
  %79 = mul nsw i32 %7, %78
  %80 = add nuw nsw i32 %77, 1
  %81 = icmp eq i32 %80, %7
  br i1 %81, label %69, label %76, !llvm.loop !14
}

; Function Attrs: argmemonly mustprogress nofree nosync nounwind willreturn
declare void @llvm.lifetime.start.p0i8(i64 immarg, i8* nocapture) #4

declare nonnull align 8 dereferenceable(16) %"class.std::basic_istream"* @_ZNSirsERi(%"class.std::basic_istream"* nonnull align 8 dereferenceable(16), i32* nonnull align 4 dereferenceable(4)) local_unnamed_addr #0

; Function Attrs: argmemonly mustprogress nofree nosync nounwind willreturn
declare void @llvm.lifetime.end.p0i8(i64 immarg, i8* nocapture) #4

declare nonnull align 8 dereferenceable(8) %"class.std::basic_ostream"* @_ZNSolsEi(%"class.std::basic_ostream"* nonnull align 8 dereferenceable(8), i32) local_unnamed_addr #0

; Function Attrs: sspstrong uwtable
define internal void @_GLOBAL__sub_I_1612.cpp() #5 section ".text.startup" {
  tail call void @_ZNSt8ios_base4InitC1Ev(%"class.std::ios_base::Init"* nonnull align 1 dereferenceable(1) @_ZStL8__ioinit)
  %1 = tail call i32 @__cxa_atexit(void (i8*)* bitcast (void (%"class.std::ios_base::Init"*)* @_ZNSt8ios_base4InitD1Ev to void (i8*)*), i8* getelementptr inbounds (%"class.std::ios_base::Init", %"class.std::ios_base::Init"* @_ZStL8__ioinit, i64 0, i32 0), i8* nonnull @__dso_handle) #7
  ret void
}

; Function Attrs: nofree nosync nounwind readnone willreturn
declare i32 @llvm.vector.reduce.mul.v4i32(<4 x i32>) #6


!llvm.module.flags = !{!0, !1, !2, !3}
!llvm.ident = !{!4}

!0 = !{i32 1, !"wchar_size", i32 4}
!1 = !{i32 7, !"PIC Level", i32 2}
!2 = !{i32 7, !"PIE Level", i32 2}
!3 = !{i32 7, !"uwtable", i32 1}
!4 = !{!"clang version 13.0.0"}
!5 = !{!6, !6, i64 0}
!6 = !{!"int", !7, i64 0}
!7 = !{!"omnipotent char", !8, i64 0}
!8 = !{!"Simple C++ TBAA"}
!9 = distinct !{!9, !10, !11}
!10 = !{!"llvm.loop.mustprogress"}
!11 = !{!"llvm.loop.isvectorized", i32 1}
!12 = distinct !{!12, !13}
!13 = !{!"llvm.loop.unroll.disable"}
!14 = distinct !{!14, !10, !15, !11}
!15 = !{!"llvm.loop.unroll.runtime.disable"}
